; Function Attrs: mustprogress uwtable
define hidden noundef zeroext i1 @_ZN4lean12is_used_nameERKNS_4exprERKNS_4nameE(ptr noundef nonnull align 8 dereferenceable(8) %0, ptr noundef nonnull align 8 dereferenceable(8) %1) local_unnamed_addr #0 personality ptr @__gxx_personality_v0 {
  %3 = alloca i8, align 1
  %4 = alloca %"class.std::function", align 8
  call void @llvm.lifetime.start.p0(i64 1, ptr nonnull %3) #17
  store i8 0, ptr %3, align 1, !tbaa !3
  call void @llvm.lifetime.start.p0(i64 32, ptr nonnull %4) #17
  %5 = getelementptr inbounds nuw i8, ptr %4, i64 16
  %6 = getelementptr inbounds nuw i8, ptr %4, i64 24
  store ptr %3, ptr %4, align 8, !tbaa !7
  %.sroa.5.0..sroa_idx = getelementptr inbounds nuw i8, ptr %4, i64 8
  store ptr %1, ptr %.sroa.5.0..sroa_idx, align 8, !tbaa !10
  store ptr @"_ZNSt17_Function_handlerIFbRKN4lean4exprEjEZNS0_12is_used_nameES3_RKNS0_4nameEE3$_0E9_M_invokeERKSt9_Any_dataS3_Oj", ptr %6, align 8, !tbaa !12
  store ptr @"_ZNSt17_Function_handlerIFbRKN4lean4exprEjEZNS0_12is_used_nameES3_RKNS0_4nameEE3$_0E10_M_managerERSt9_Any_dataRKSA_St18_Manager_operation", ptr %5, align 8, !tbaa !15
  invoke void @_ZN4lean8for_eachERKNS_4exprEOSt8functionIFbS2_jEE(ptr noundef nonnull align 8 dereferenceable(8) %0, ptr noundef nonnull align 8 dereferenceable(32) %4)
          to label %7 unwind label %16

7:                                                ; preds = %2
  %8 = load ptr, ptr %5, align 8, !tbaa !15
  %.not.i = icmp eq ptr %8, null
  br i1 %.not.i, label %_ZNSt14_Function_baseD2Ev.exit, label %9

9:                                                ; preds = %7
  %10 = invoke noundef zeroext i1 %8(ptr noundef nonnull align 8 dereferenceable(32) %4, ptr noundef nonnull align 8 dereferenceable(32) %4, i32 noundef 3)
          to label %_ZNSt14_Function_baseD2Ev.exit unwind label %11

11:                                               ; preds = %9
  %12 = landingpad { ptr, i32 }
          catch ptr null
  %13 = extractvalue { ptr, i32 } %12, 0
  call void @__clang_call_terminate(ptr %13) #18
  unreachable

_ZNSt14_Function_baseD2Ev.exit:                   ; preds = %7, %9
  call void @llvm.lifetime.end.p0(i64 32, ptr nonnull %4) #17
  %14 = load i8, ptr %3, align 1, !tbaa !3, !range !16, !noundef !17
  %15 = trunc nuw i8 %14 to i1
  call void @llvm.lifetime.end.p0(i64 1, ptr nonnull %3) #17
  ret i1 %15

16:                                               ; preds = %2
  %17 = landingpad { ptr, i32 }
          cleanup
  %18 = load ptr, ptr %5, align 8, !tbaa !15
  %.not.i3 = icmp eq ptr %18, null
  br i1 %.not.i3, label %_ZNSt14_Function_baseD2Ev.exit4, label %19

19:                                               ; preds = %16
  %20 = invoke noundef zeroext i1 %18(ptr noundef nonnull align 8 dereferenceable(32) %4, ptr noundef nonnull align 8 dereferenceable(32) %4, i32 noundef 3)
          to label %_ZNSt14_Function_baseD2Ev.exit4 unwind label %21

21:                                               ; preds = %19
  %22 = landingpad { ptr, i32 }
          catch ptr null
  %23 = extractvalue { ptr, i32 } %22, 0
  call void @__clang_call_terminate(ptr %23) #18
  unreachable

_ZNSt14_Function_baseD2Ev.exit4:                  ; preds = %16, %19
  call void @llvm.lifetime.end.p0(i64 32, ptr nonnull %4) #17
  call void @llvm.lifetime.end.p0(i64 1, ptr nonnull %3) #17
  resume { ptr, i32 } %17
}